target datalayout = "e-m:e-p270:32:32-p271:32:32-p272:64:64-i64:64-i128:128-f80:128-n8:16:32:64-S128"
target triple = "x86_64-pc-linux-gnu"

%class.RegMask = type { %union.anon, i32, i32 }
%union.anon = type { [11 x i64] }

; Function Attrs: mustprogress nounwind uwtable
define linkonce_odr hidden noundef zeroext i1 @_ZNK7RegMask6MemberEi(ptr noundef nonnull align 8 dereferenceable(96) %0, i32 noundef %1) #1 comdat align 2 {
  %3 = alloca ptr, align 8
  %4 = alloca i32, align 4
  %5 = alloca i32, align 4
  store ptr %0, ptr %3, align 8
  store i32 %1, ptr %4, align 4
  %6 = load ptr, ptr %3, align 8
  %7 = load i32, ptr %4, align 4
  store i32 %7, ptr %5, align 4
  %8 = getelementptr inbounds %class.RegMask, ptr %6, i32 0, i32 0
  %9 = load i32, ptr %5, align 4
  %10 = lshr i32 %9, 6
  %11 = zext i32 %10 to i64
  %12 = getelementptr inbounds [11 x i64], ptr %8, i64 0, i64 %11
  %13 = load i64, ptr %12, align 8
  %14 = load i32, ptr %5, align 4
  %15 = and i32 %14, 63
  %16 = zext i32 %15 to i64
  %17 = shl i64 1, %16
  %18 = and i64 %13, %17
  %19 = icmp ne i64 %18, 0
  ret i1 %19
}

; Function Attrs: mustprogress nounwind uwtable
define hidden noundef zeroext i1 @_ZNK7RegMask12is_valid_regEii(ptr noundef nonnull align 8 dereferenceable(96) %0, i32 noundef %1, i32 noundef %2) #1 align 2 {
  %4 = alloca i1, align 1
  %5 = alloca ptr, align 8
  %6 = alloca i32, align 4
  %7 = alloca i32, align 4
  %8 = alloca i32, align 4
  store ptr %0, ptr %5, align 8
  store i32 %1, ptr %6, align 4
  store i32 %2, ptr %7, align 4
  %9 = load ptr, ptr %5, align 8
  store i32 0, ptr %8, align 4
  br label %10

10:                                               ; preds = %21, %3
  %11 = load i32, ptr %8, align 4
  %12 = load i32, ptr %7, align 4
  %13 = icmp slt i32 %11, %12
  br i1 %13, label %14, label %24

14:                                               ; preds = %10
  %15 = load i32, ptr %6, align 4
  %16 = load i32, ptr %8, align 4
  %17 = sub nsw i32 %15, %16
  %18 = call noundef zeroext i1 @_ZNK7RegMask6MemberEi(ptr noundef nonnull align 8 dereferenceable(96) %9, i32 noundef %17)
  br i1 %18, label %20, label %19

19:                                               ; preds = %14
  store i1 false, ptr %4, align 1
  br label %25

20:                                               ; preds = %14
  br label %21

21:                                               ; preds = %20
  %22 = load i32, ptr %8, align 4
  %23 = add nsw i32 %22, 1
  store i32 %23, ptr %8, align 4
  br label %10, !llvm.loop !19

24:                                               ; preds = %10
  store i1 true, ptr %4, align 1
  br label %25

25:                                               ; preds = %24, %19
  %26 = load i1, ptr %4, align 1
  ret i1 %26
}