; Function Attrs: mustprogress nofree norecurse nosync nounwind willreturn memory(argmem: read) uwtable
define hidden noundef zeroext i1 @_ZNK7RegMask12is_valid_regEii(ptr nocapture noundef nonnull readonly align 8 dereferenceable(96) %0, i32 noundef %1, i32 noundef %2) local_unnamed_addr #2 align 2 {
  %4 = icmp slt i32 %2, 1
  br i1 %4, label %._crit_edge, label %.lr.ph.preheader

.lr.ph.preheader:                                 ; preds = %3
  %5 = lshr i32 %1, 6
  %6 = zext nneg i32 %5 to i64
  %7 = getelementptr inbounds [11 x i64], ptr %0, i64 0, i64 %6
  %8 = load i64, ptr %7, align 8
  %9 = and i32 %1, 63
  %10 = zext nneg i32 %9 to i64
  %11 = shl nuw i64 1, %10
  %12 = and i64 %8, %11
  %.not10 = icmp eq i64 %12, 0
  br i1 %.not10, label %._crit_edge, label %.lr.ph12

.lr.ph12:                                         ; preds = %.lr.ph.preheader, %.lr.ph
  %.0711 = phi i32 [ %13, %.lr.ph ], [ 0, %.lr.ph.preheader ]
  %13 = add nuw nsw i32 %.0711, 1
  %exitcond = icmp eq i32 %13, %2
  br i1 %exitcond, label %._crit_edge.loopexit, label %.lr.ph, !llvm.loop !17

.lr.ph:                                           ; preds = %.lr.ph12
  %14 = sub nsw i32 %1, %13
  %15 = lshr i32 %14, 6
  %16 = zext nneg i32 %15 to i64
  %17 = getelementptr inbounds [11 x i64], ptr %0, i64 0, i64 %16
  %18 = load i64, ptr %17, align 8
  %19 = and i32 %14, 63
  %20 = zext nneg i32 %19 to i64
  %21 = shl nuw i64 1, %20
  %22 = and i64 %18, %21
  %.not = icmp eq i64 %22, 0
  br i1 %.not, label %._crit_edge.loopexit, label %.lr.ph12, !llvm.loop !17

._crit_edge.loopexit:                             ; preds = %.lr.ph, %.lr.ph12
  %23 = icmp sge i32 %13, %2
  br label %._crit_edge

._crit_edge:                                      ; preds = %._crit_edge.loopexit, %.lr.ph.preheader, %3
  %.lcssa = phi i1 [ true, %3 ], [ false, %.lr.ph.preheader ], [ %23, %._crit_edge.loopexit ]
  ret i1 %.lcssa
}